; Function Attrs: mustprogress nofree norecurse nosync nounwind willreturn memory(argmem: read) uwtable
define ptr @ffio_geturlcontext(ptr noundef readonly captures(address_is_null) %0) local_unnamed_addr #1 {
  %.not = icmp eq ptr %0, null
  br i1 %.not, label %10, label %2

2:                                                ; preds = %1
  %3 = getelementptr inbounds nuw i8, ptr %0, i64 40
  %4 = load ptr, ptr %3, align 8, !tbaa !4
  %.not7 = icmp eq ptr %4, null
  br i1 %.not7, label %9, label %5

5:                                                ; preds = %2
  %6 = getelementptr inbounds nuw i8, ptr %0, i64 48
  %7 = load ptr, ptr %6, align 8, !tbaa !14
  %8 = icmp eq ptr %7, @ffurl_read2
  br i1 %8, label %10, label %9

9:                                                ; preds = %5, %2
  br label %10

10:                                               ; preds = %5, %1, %9
  %.0 = phi ptr [ null, %9 ], [ null, %1 ], [ %4, %5 ]
  ret ptr %.0
}